; Function Attrs: nounwind uwtable
define void @luckyCanonicizerS_F_first_16Vars1(ptr noundef captures(none) %0, i32 noundef %1, i32 noundef %2, ptr noundef readonly captures(none) %3, ptr noundef %4, ptr noundef captures(none) %5) local_unnamed_addr #0 {
  %7 = load i32, ptr %5, align 4, !tbaa !6
  %8 = add nsw i32 %1, 1
  %9 = shl nuw i32 1, %8
  %10 = and i32 %7, %9
  %.not = icmp eq i32 %10, 0
  br i1 %.not, label %.preheader, label %.preheader15

.preheader15:                                     ; preds = %6, %.preheader15
  %11 = tail call i32 @minimalSwapAndFlipIVar_superFast_all(ptr noundef %0, i32 noundef %1, i32 noundef %2, ptr noundef %3, ptr noundef %4, ptr noundef nonnull %5)
  %.not14 = icmp eq i32 %11, 0
  br i1 %.not14, label %.loopexit, label %.preheader15, !llvm.loop !36

.preheader:                                       ; preds = %6, %.preheader
  %12 = tail call i32 @minimalSwapAndFlipIVar_superFast_all_noEBFC(ptr noundef %0, i32 noundef %1, i32 noundef %2, ptr noundef %3, ptr noundef %4, ptr noundef nonnull %5)
  %.not13 = icmp eq i32 %12, 0
  br i1 %.not13, label %.loopexit, label %.preheader, !llvm.loop !37

.loopexit:                                        ; preds = %.preheader15, %.preheader
  ret void
}